target datalayout = "e-m:e-p270:32:32-p271:32:32-p272:64:64-i64:64-i128:128-f80:128-n8:16:32:64-S128"
target triple = "x86_64-pc-linux-gnu"

%struct.Vec_Int_t_ = type { i32, i32, ptr }
%struct.Vec_Ptr_t_ = type { i32, i32, ptr }

@.str.12 = private unnamed_addr constant [7 x i8] c"  \0A\0D\09,\00", align 1

; Function Attrs: inlinehint nounwind uwtable
define internal void @Vec_IntGrow(ptr noundef %0, i32 noundef %1) #2 {
  %3 = alloca ptr, align 8
  %4 = alloca i32, align 4
  store ptr %0, ptr %3, align 8, !tbaa !27
  store i32 %1, ptr %4, align 4, !tbaa !8
  %5 = load ptr, ptr %3, align 8, !tbaa !27
  %6 = getelementptr inbounds nuw %struct.Vec_Int_t_, ptr %5, i32 0, i32 0
  %7 = load i32, ptr %6, align 8, !tbaa !29
  %8 = load i32, ptr %4, align 4, !tbaa !8
  %9 = icmp sge i32 %7, %8
  br i1 %9, label %10, label %11

10:                                               ; preds = %2
  br label %36

11:                                               ; preds = %2
  %12 = load ptr, ptr %3, align 8, !tbaa !27
  %13 = getelementptr inbounds nuw %struct.Vec_Int_t_, ptr %12, i32 0, i32 2
  %14 = load ptr, ptr %13, align 8, !tbaa !30
  %15 = icmp ne ptr %14, null
  br i1 %15, label %16, label %24

16:                                               ; preds = %11
  %17 = load ptr, ptr %3, align 8, !tbaa !27
  %18 = getelementptr inbounds nuw %struct.Vec_Int_t_, ptr %17, i32 0, i32 2
  %19 = load ptr, ptr %18, align 8, !tbaa !30
  %20 = load i32, ptr %4, align 4, !tbaa !8
  %21 = sext i32 %20 to i64
  %22 = mul i64 4, %21
  %23 = call ptr @realloc(ptr noundef %19, i64 noundef %22) #16
  br label %29

24:                                               ; preds = %11
  %25 = load i32, ptr %4, align 4, !tbaa !8
  %26 = sext i32 %25 to i64
  %27 = mul i64 4, %26
  %28 = call noalias ptr @malloc(i64 noundef %27) #13
  br label %29

29:                                               ; preds = %24, %16
  %30 = phi ptr [ %23, %16 ], [ %28, %24 ]
  %31 = load ptr, ptr %3, align 8, !tbaa !27
  %32 = getelementptr inbounds nuw %struct.Vec_Int_t_, ptr %31, i32 0, i32 2
  store ptr %30, ptr %32, align 8, !tbaa !30
  %33 = load i32, ptr %4, align 4, !tbaa !8
  %34 = load ptr, ptr %3, align 8, !tbaa !27
  %35 = getelementptr inbounds nuw %struct.Vec_Int_t_, ptr %34, i32 0, i32 0
  store i32 %33, ptr %35, align 8, !tbaa !29
  br label %36

36:                                               ; preds = %29, %10
  ret void
}

; Function Attrs: inlinehint nounwind uwtable
define internal void @Vec_IntPush(ptr noundef %0, i32 noundef %1) #2 {
  %3 = alloca ptr, align 8
  %4 = alloca i32, align 4
  store ptr %0, ptr %3, align 8, !tbaa !27
  store i32 %1, ptr %4, align 4, !tbaa !8
  %5 = load ptr, ptr %3, align 8, !tbaa !27
  %6 = getelementptr inbounds nuw %struct.Vec_Int_t_, ptr %5, i32 0, i32 1
  %7 = load i32, ptr %6, align 4, !tbaa !28
  %8 = load ptr, ptr %3, align 8, !tbaa !27
  %9 = getelementptr inbounds nuw %struct.Vec_Int_t_, ptr %8, i32 0, i32 0
  %10 = load i32, ptr %9, align 8, !tbaa !29
  %11 = icmp eq i32 %7, %10
  br i1 %11, label %12, label %26

12:                                               ; preds = %2
  %13 = load ptr, ptr %3, align 8, !tbaa !27
  %14 = getelementptr inbounds nuw %struct.Vec_Int_t_, ptr %13, i32 0, i32 0
  %15 = load i32, ptr %14, align 8, !tbaa !29
  %16 = icmp slt i32 %15, 16
  br i1 %16, label %17, label %19

17:                                               ; preds = %12
  %18 = load ptr, ptr %3, align 8, !tbaa !27
  call void @Vec_IntGrow(ptr noundef %18, i32 noundef 16)
  br label %25

19:                                               ; preds = %12
  %20 = load ptr, ptr %3, align 8, !tbaa !27
  %21 = load ptr, ptr %3, align 8, !tbaa !27
  %22 = getelementptr inbounds nuw %struct.Vec_Int_t_, ptr %21, i32 0, i32 0
  %23 = load i32, ptr %22, align 8, !tbaa !29
  %24 = mul nsw i32 2, %23
  call void @Vec_IntGrow(ptr noundef %20, i32 noundef %24)
  br label %25

25:                                               ; preds = %19, %17
  br label %26

26:                                               ; preds = %25, %2
  %27 = load i32, ptr %4, align 4, !tbaa !8
  %28 = load ptr, ptr %3, align 8, !tbaa !27
  %29 = getelementptr inbounds nuw %struct.Vec_Int_t_, ptr %28, i32 0, i32 2
  %30 = load ptr, ptr %29, align 8, !tbaa !30
  %31 = load ptr, ptr %3, align 8, !tbaa !27
  %32 = getelementptr inbounds nuw %struct.Vec_Int_t_, ptr %31, i32 0, i32 1
  %33 = load i32, ptr %32, align 4, !tbaa !28
  %34 = add nsw i32 %33, 1
  store i32 %34, ptr %32, align 4, !tbaa !28
  %35 = sext i32 %33 to i64
  %36 = getelementptr inbounds i32, ptr %30, i64 %35
  store i32 %27, ptr %36, align 4, !tbaa !8
  ret void
}

; Function Attrs: inlinehint nounwind uwtable
define internal void @Vec_IntPushTwo(ptr noundef %0, i32 noundef %1, i32 noundef %2) #2 {
  %4 = alloca ptr, align 8
  %5 = alloca i32, align 4
  %6 = alloca i32, align 4
  store ptr %0, ptr %4, align 8, !tbaa !27
  store i32 %1, ptr %5, align 4, !tbaa !8
  store i32 %2, ptr %6, align 4, !tbaa !8
  %7 = load ptr, ptr %4, align 8, !tbaa !27
  %8 = load i32, ptr %5, align 4, !tbaa !8
  call void @Vec_IntPush(ptr noundef %7, i32 noundef %8)
  %9 = load ptr, ptr %4, align 8, !tbaa !27
  %10 = load i32, ptr %6, align 4, !tbaa !8
  call void @Vec_IntPush(ptr noundef %9, i32 noundef %10)
  ret void
}

; Function Attrs: inlinehint nounwind uwtable
define internal ptr @Vec_PtrEntry(ptr noundef %0, i32 noundef %1) #2 {
  %3 = alloca ptr, align 8
  %4 = alloca i32, align 4
  store ptr %0, ptr %3, align 8, !tbaa !56
  store i32 %1, ptr %4, align 4, !tbaa !8
  %5 = load ptr, ptr %3, align 8, !tbaa !56
  %6 = getelementptr inbounds nuw %struct.Vec_Ptr_t_, ptr %5, i32 0, i32 2
  %7 = load ptr, ptr %6, align 8, !tbaa !67
  %8 = load i32, ptr %4, align 4, !tbaa !8
  %9 = sext i32 %8 to i64
  %10 = getelementptr inbounds ptr, ptr %7, i64 %9
  %11 = load ptr, ptr %10, align 8, !tbaa !68
  ret ptr %11
}

; Function Attrs: inlinehint nounwind uwtable
define internal ptr @Vec_IntAlloc(i32 noundef %0) #2 {
  %2 = alloca i32, align 4
  %3 = alloca ptr, align 8
  store i32 %0, ptr %2, align 4, !tbaa !8
  call void @llvm.lifetime.start.p0(i64 8, ptr %3) #12
  %4 = call noalias ptr @malloc(i64 noundef 16) #13
  store ptr %4, ptr %3, align 8, !tbaa !27
  %5 = load i32, ptr %2, align 4, !tbaa !8
  %6 = icmp sgt i32 %5, 0
  br i1 %6, label %7, label %11

7:                                                ; preds = %1
  %8 = load i32, ptr %2, align 4, !tbaa !8
  %9 = icmp slt i32 %8, 16
  br i1 %9, label %10, label %11

10:                                               ; preds = %7
  store i32 16, ptr %2, align 4, !tbaa !8
  br label %11

11:                                               ; preds = %10, %7, %1
  %12 = load ptr, ptr %3, align 8, !tbaa !27
  %13 = getelementptr inbounds nuw %struct.Vec_Int_t_, ptr %12, i32 0, i32 1
  store i32 0, ptr %13, align 4, !tbaa !28
  %14 = load i32, ptr %2, align 4, !tbaa !8
  %15 = load ptr, ptr %3, align 8, !tbaa !27
  %16 = getelementptr inbounds nuw %struct.Vec_Int_t_, ptr %15, i32 0, i32 0
  store i32 %14, ptr %16, align 8, !tbaa !29
  %17 = load ptr, ptr %3, align 8, !tbaa !27
  %18 = getelementptr inbounds nuw %struct.Vec_Int_t_, ptr %17, i32 0, i32 0
  %19 = load i32, ptr %18, align 8, !tbaa !29
  %20 = icmp ne i32 %19, 0
  br i1 %20, label %21, label %28

21:                                               ; preds = %11
  %22 = load ptr, ptr %3, align 8, !tbaa !27
  %23 = getelementptr inbounds nuw %struct.Vec_Int_t_, ptr %22, i32 0, i32 0
  %24 = load i32, ptr %23, align 8, !tbaa !29
  %25 = sext i32 %24 to i64
  %26 = mul i64 4, %25
  %27 = call noalias ptr @malloc(i64 noundef %26) #13
  br label %29

28:                                               ; preds = %11
  br label %29

29:                                               ; preds = %28, %21
  %30 = phi ptr [ %27, %21 ], [ null, %28 ]
  %31 = load ptr, ptr %3, align 8, !tbaa !27
  %32 = getelementptr inbounds nuw %struct.Vec_Int_t_, ptr %31, i32 0, i32 2
  store ptr %30, ptr %32, align 8, !tbaa !30
  %33 = load ptr, ptr %3, align 8, !tbaa !27
  call void @llvm.lifetime.end.p0(i64 8, ptr %3) #12
  ret ptr %33
}

; Function Attrs: inlinehint nounwind uwtable
define internal i32 @Vec_PtrSize(ptr noundef %0) #2 {
  %2 = alloca ptr, align 8
  store ptr %0, ptr %2, align 8, !tbaa !56
  %3 = load ptr, ptr %2, align 8, !tbaa !56
  %4 = getelementptr inbounds nuw %struct.Vec_Ptr_t_, ptr %3, i32 0, i32 1
  %5 = load i32, ptr %4, align 4, !tbaa !66
  ret i32 %5
}

; Function Attrs: nounwind uwtable
define ptr @Acb_NtkPlaces(ptr noundef %0, ptr noundef %1) #0 {
  %3 = alloca ptr, align 8
  %4 = alloca ptr, align 8
  %5 = alloca ptr, align 8
  %6 = alloca ptr, align 8
  %7 = alloca i32, align 4
  %8 = alloca i32, align 4
  %9 = alloca i32, align 4
  %10 = alloca ptr, align 8
  %11 = alloca ptr, align 8
  %12 = alloca ptr, align 8
  %13 = alloca i32, align 4
  %14 = alloca ptr, align 8
  %15 = alloca ptr, align 8
  %16 = alloca i32, align 4
  store ptr %0, ptr %4, align 8, !tbaa !58
  store ptr %1, ptr %5, align 8, !tbaa !56
  call void @llvm.lifetime.start.p0(i64 8, ptr %6) #12
  call void @llvm.lifetime.start.p0(i64 4, ptr %7) #12
  store i32 1, ptr %7, align 4, !tbaa !8
  call void @llvm.lifetime.start.p0(i64 4, ptr %8) #12
  store i32 -1, ptr %8, align 4, !tbaa !8
  call void @llvm.lifetime.start.p0(i64 4, ptr %9) #12
  store i32 0, ptr %9, align 4, !tbaa !8
  call void @llvm.lifetime.start.p0(i64 8, ptr %10) #12
  call void @llvm.lifetime.start.p0(i64 8, ptr %11) #12
  %17 = load ptr, ptr %4, align 8, !tbaa !58
  %18 = call ptr @Extra_FileReadContents(ptr noundef %17)
  store ptr %18, ptr %11, align 8, !tbaa !58
  call void @llvm.lifetime.start.p0(i64 8, ptr %12) #12
  %19 = load ptr, ptr %11, align 8, !tbaa !58
  %20 = load ptr, ptr %11, align 8, !tbaa !58
  %21 = call i64 @strlen(ptr noundef %20) #14
  %22 = getelementptr inbounds nuw i8, ptr %19, i64 %21
  store ptr %22, ptr %12, align 8, !tbaa !58
  %23 = load ptr, ptr %11, align 8, !tbaa !58
  %24 = icmp eq ptr %23, null
  br i1 %24, label %25, label %26

25:                                               ; preds = %2
  store ptr null, ptr %3, align 8
  store i32 1, ptr %13, align 4
  br label %135

26:                                               ; preds = %2
  %27 = load ptr, ptr %5, align 8, !tbaa !56
  %28 = call i32 @Vec_PtrSize(ptr noundef %27)
  %29 = call ptr @Vec_IntAlloc(i32 noundef %28)
  store ptr %29, ptr %6, align 8, !tbaa !27
  %30 = load ptr, ptr %11, align 8, !tbaa !58
  store ptr %30, ptr %10, align 8, !tbaa !58
  br label %31

31:                                               ; preds = %124, %26
  %32 = load ptr, ptr %10, align 8, !tbaa !58
  %33 = load i8, ptr %32, align 1, !tbaa !186
  %34 = icmp ne i8 %33, 0
  br i1 %34, label %35, label %127

35:                                               ; preds = %31
  %36 = load ptr, ptr %10, align 8, !tbaa !58
  %37 = load i8, ptr %36, align 1, !tbaa !186
  %38 = sext i8 %37 to i32
  %39 = icmp eq i32 %38, 10
  br i1 %39, label %40, label %41

40:                                               ; preds = %35
  store i32 0, ptr %9, align 4, !tbaa !8
  br label %41

41:                                               ; preds = %40, %35
  %42 = load ptr, ptr %10, align 8, !tbaa !58
  %43 = load i8, ptr %42, align 1, !tbaa !186
  %44 = sext i8 %43 to i32
  %45 = icmp eq i32 %44, 47
  br i1 %45, label %46, label %53

46:                                               ; preds = %41
  %47 = load ptr, ptr %10, align 8, !tbaa !58
  %48 = getelementptr inbounds i8, ptr %47, i64 1
  %49 = load i8, ptr %48, align 1, !tbaa !186
  %50 = sext i8 %49 to i32
  %51 = icmp eq i32 %50, 47
  br i1 %51, label %52, label %53

52:                                               ; preds = %46
  store i32 1, ptr %9, align 4, !tbaa !8
  br label %53

53:                                               ; preds = %52, %46, %41
  %54 = load i32, ptr %9, align 4, !tbaa !8
  %55 = icmp ne i32 %54, 0
  br i1 %55, label %56, label %57

56:                                               ; preds = %53
  br label %124

57:                                               ; preds = %53
  %58 = load ptr, ptr %10, align 8, !tbaa !58
  %59 = load i8, ptr %58, align 1, !tbaa !186
  %60 = sext i8 %59 to i32
  %61 = icmp eq i32 %60, 10
  br i1 %61, label %62, label %70

62:                                               ; preds = %57
  %63 = load ptr, ptr %10, align 8, !tbaa !58
  %64 = load ptr, ptr %11, align 8, !tbaa !58
  %65 = ptrtoint ptr %63 to i64
  %66 = ptrtoint ptr %64 to i64
  %67 = sub i64 %65, %66
  %68 = add nsw i64 %67, 1
  %69 = trunc i64 %68 to i32
  store i32 %69, ptr %8, align 4, !tbaa !8
  br label %123

70:                                               ; preds = %57
  %71 = load ptr, ptr %10, align 8, !tbaa !58
  %72 = load i8, ptr %71, align 1, !tbaa !186
  %73 = sext i8 %72 to i32
  %74 = icmp eq i32 %73, 40
  br i1 %74, label %75, label %122

75:                                               ; preds = %70
  %76 = load i32, ptr %7, align 4, !tbaa !8
  %77 = icmp ne i32 %76, 0
  br i1 %77, label %78, label %79

78:                                               ; preds = %75
  store i32 0, ptr %7, align 4, !tbaa !8
  br label %121

79:                                               ; preds = %75
  call void @llvm.lifetime.start.p0(i64 8, ptr %14) #12
  %80 = load ptr, ptr %10, align 8, !tbaa !58
  %81 = getelementptr inbounds i8, ptr %80, i64 1
  %82 = call ptr @strtok(ptr noundef %81, ptr noundef @.str.12) #12
  store ptr %82, ptr %14, align 8, !tbaa !58
  call void @llvm.lifetime.start.p0(i64 8, ptr %15) #12
  call void @llvm.lifetime.start.p0(i64 4, ptr %16) #12
  store i32 0, ptr %16, align 4, !tbaa !8
  br label %83

83:                                               ; preds = %104, %79
  %84 = load i32, ptr %16, align 4, !tbaa !8
  %85 = load ptr, ptr %5, align 8, !tbaa !56
  %86 = call i32 @Vec_PtrSize(ptr noundef %85)
  %87 = icmp slt i32 %84, %86
  br i1 %87, label %88, label %92

88:                                               ; preds = %83
  %89 = load ptr, ptr %5, align 8, !tbaa !56
  %90 = load i32, ptr %16, align 4, !tbaa !8
  %91 = call ptr @Vec_PtrEntry(ptr noundef %89, i32 noundef %90)
  store ptr %91, ptr %15, align 8, !tbaa !58
  br label %92

92:                                               ; preds = %88, %83
  %93 = phi i1 [ false, %83 ], [ true, %88 ]
  br i1 %93, label %94, label %107

94:                                               ; preds = %92
  %95 = load ptr, ptr %15, align 8, !tbaa !58
  %96 = load ptr, ptr %14, align 8, !tbaa !58
  %97 = call i32 @strcmp(ptr noundef %95, ptr noundef %96) #14
  %98 = icmp ne i32 %97, 0
  br i1 %98, label %103, label %99

99:                                               ; preds = %94
  %100 = load ptr, ptr %6, align 8, !tbaa !27
  %101 = load i32, ptr %8, align 4, !tbaa !8
  %102 = load i32, ptr %16, align 4, !tbaa !8
  call void @Vec_IntPushTwo(ptr noundef %100, i32 noundef %101, i32 noundef %102)
  br label %103

103:                                              ; preds = %99, %94
  br label %104

104:                                              ; preds = %103
  %105 = load i32, ptr %16, align 4, !tbaa !8
  %106 = add nsw i32 %105, 1
  store i32 %106, ptr %16, align 4, !tbaa !8
  br label %83, !llvm.loop !209

107:                                              ; preds = %92
  %108 = load ptr, ptr %14, align 8, !tbaa !58
  %109 = load ptr, ptr %14, align 8, !tbaa !58
  %110 = call i64 @strlen(ptr noundef %109) #14
  %111 = getelementptr inbounds nuw i8, ptr %108, i64 %110
  store ptr %111, ptr %10, align 8, !tbaa !58
  br label %112

112:                                              ; preds = %117, %107
  %113 = load ptr, ptr %10, align 8, !tbaa !58
  %114 = load i8, ptr %113, align 1, !tbaa !186
  %115 = sext i8 %114 to i32
  %116 = icmp eq i32 %115, 0
  br i1 %116, label %117, label %120

117:                                              ; preds = %112
  %118 = load ptr, ptr %10, align 8, !tbaa !58
  %119 = getelementptr inbounds nuw i8, ptr %118, i32 1
  store ptr %119, ptr %10, align 8, !tbaa !58
  br label %112, !llvm.loop !210

120:                                              ; preds = %112
  call void @llvm.lifetime.end.p0(i64 4, ptr %16) #12
  call void @llvm.lifetime.end.p0(i64 8, ptr %15) #12
  call void @llvm.lifetime.end.p0(i64 8, ptr %14) #12
  br label %121

121:                                              ; preds = %120, %78
  br label %122

122:                                              ; preds = %121, %70
  br label %123

123:                                              ; preds = %122, %62
  br label %124

124:                                              ; preds = %123, %56
  %125 = load ptr, ptr %10, align 8, !tbaa !58
  %126 = getelementptr inbounds nuw i8, ptr %125, i32 1
  store ptr %126, ptr %10, align 8, !tbaa !58
  br label %31, !llvm.loop !211

127:                                              ; preds = %31
  %128 = load ptr, ptr %11, align 8, !tbaa !58
  %129 = icmp ne ptr %128, null
  br i1 %129, label %130, label %132

130:                                              ; preds = %127
  %131 = load ptr, ptr %11, align 8, !tbaa !58
  call void @free(ptr noundef %131) #12
  store ptr null, ptr %11, align 8, !tbaa !58
  br label %133

132:                                              ; preds = %127
  br label %133

133:                                              ; preds = %132, %130
  %134 = load ptr, ptr %6, align 8, !tbaa !27
  store ptr %134, ptr %3, align 8
  store i32 1, ptr %13, align 4
  br label %135

135:                                              ; preds = %133, %25
  call void @llvm.lifetime.end.p0(i64 8, ptr %12) #12
  call void @llvm.lifetime.end.p0(i64 8, ptr %11) #12
  call void @llvm.lifetime.end.p0(i64 8, ptr %10) #12
  call void @llvm.lifetime.end.p0(i64 4, ptr %9) #12
  call void @llvm.lifetime.end.p0(i64 4, ptr %8) #12
  call void @llvm.lifetime.end.p0(i64 4, ptr %7) #12
  call void @llvm.lifetime.end.p0(i64 8, ptr %6) #12
  %136 = load ptr, ptr %3, align 8
  ret ptr %136
}