; Function Attrs: nounwind uwtable
define noalias noundef ptr @Acb_NtkPlaces(ptr noundef %0, ptr noundef readonly captures(none) %1) local_unnamed_addr #0 {
  %3 = tail call ptr @Extra_FileReadContents(ptr noundef %0) #27
  %4 = icmp eq ptr %3, null
  br i1 %4, label %91, label %5

5:                                                ; preds = %2
  %6 = getelementptr i8, ptr %1, i64 4
  %.val50 = load i32, ptr %6, align 4, !tbaa !54
  %7 = tail call noalias dereferenceable_or_null(16) ptr @malloc(i64 noundef 16) #26
  %8 = add i32 %.val50, -1
  %or.cond.i = icmp ult i32 %8, 15
  %spec.store.select.i = select i1 %or.cond.i, i32 16, i32 %.val50
  %9 = getelementptr inbounds nuw i8, ptr %7, i64 4
  store i32 0, ptr %9, align 4, !tbaa !27
  store i32 %spec.store.select.i, ptr %7, align 8, !tbaa !28
  %.not.i = icmp eq i32 %spec.store.select.i, 0
  br i1 %.not.i, label %Vec_IntAlloc.exit, label %10

10:                                               ; preds = %5
  %11 = sext i32 %spec.store.select.i to i64
  %12 = shl nsw i64 %11, 2
  %13 = tail call noalias ptr @malloc(i64 noundef %12) #26
  br label %Vec_IntAlloc.exit

Vec_IntAlloc.exit:                                ; preds = %5, %10
  %14 = phi ptr [ %13, %10 ], [ null, %5 ]
  %15 = getelementptr inbounds nuw i8, ptr %7, i64 8
  store ptr %14, ptr %15, align 8, !tbaa !21
  %16 = ptrtoint ptr %3 to i64
  %17 = getelementptr i8, ptr %1, i64 8
  br label %18

18:                                               ; preds = %.thread58, %Vec_IntAlloc.exit
  %.041 = phi i32 [ 0, %Vec_IntAlloc.exit ], [ %.24356, %.thread58 ]
  %.039 = phi ptr [ %3, %Vec_IntAlloc.exit ], [ %89, %.thread58 ]
  %.037 = phi i32 [ -1, %Vec_IntAlloc.exit ], [ %.138, %.thread58 ]
  %.036 = phi i32 [ 1, %Vec_IntAlloc.exit ], [ %.1, %.thread58 ]
  %19 = load i8, ptr %.039, align 1, !tbaa !24
  switch i8 %19, label %24 [
    i8 0, label %90
    i8 10, label %.thread61
    i8 47, label %20
  ]

20:                                               ; preds = %18
  %21 = getelementptr inbounds nuw i8, ptr %.039, i64 1
  %22 = load i8, ptr %21, align 1, !tbaa !24
  %23 = icmp eq i8 %22, 47
  %spec.select = select i1 %23, i32 1, i32 %.041
  br label %.thread58

24:                                               ; preds = %18
  %.not47 = icmp eq i32 %.041, 0
  br i1 %.not47, label %25, label %.thread58

25:                                               ; preds = %24
  %cond = icmp eq i8 %19, 40
  br i1 %cond, label %30, label %.thread58

.thread61:                                        ; preds = %18
  %26 = ptrtoint ptr %.039 to i64
  %27 = sub i64 %26, %16
  %28 = trunc i64 %27 to i32
  %29 = add i32 %28, 1
  br label %.thread58

30:                                               ; preds = %25
  %.not48 = icmp eq i32 %.036, 0
  br i1 %.not48, label %31, label %.thread58

31:                                               ; preds = %30
  %32 = getelementptr inbounds nuw i8, ptr %.039, i64 1
  %33 = tail call ptr @strtok(ptr noundef nonnull %32, ptr noundef nonnull @.str.12) #27
  %.val64 = load i32, ptr %6, align 4, !tbaa !54
  %34 = icmp sgt i32 %.val64, 0
  br i1 %34, label %.lr.ph, label %.critedge

.lr.ph:                                           ; preds = %31, %80
  %.val67 = phi i32 [ %.val, %80 ], [ %.val64, %31 ]
  %indvars.iv = phi i64 [ %indvars.iv.next, %80 ], [ 0, %31 ]
  %.val51 = load ptr, ptr %17, align 8, !tbaa !56
  %35 = getelementptr inbounds nuw ptr, ptr %.val51, i64 %indvars.iv
  %36 = load ptr, ptr %35, align 8, !tbaa !57
  %37 = tail call i32 @strcmp(ptr noundef nonnull dereferenceable(1) %36, ptr noundef nonnull dereferenceable(1) %33) #28
  %.not49 = icmp eq i32 %37, 0
  br i1 %.not49, label %38, label %80

38:                                               ; preds = %.lr.ph
  %39 = load i32, ptr %9, align 4, !tbaa !27
  %40 = load i32, ptr %7, align 8, !tbaa !28
  %41 = icmp eq i32 %39, %40
  br i1 %41, label %42, label %.Vec_IntGrow.exit10_crit_edge.i.i

.Vec_IntGrow.exit10_crit_edge.i.i:                ; preds = %38
  %.pre.i.i = load ptr, ptr %15, align 8, !tbaa !21
  br label %Vec_IntPush.exit.i

42:                                               ; preds = %38
  %43 = icmp slt i32 %39, 16
  br i1 %43, label %44, label %51

44:                                               ; preds = %42
  %45 = load ptr, ptr %15, align 8, !tbaa !21
  %.not9.i.i.i = icmp eq ptr %45, null
  br i1 %.not9.i.i.i, label %48, label %46

46:                                               ; preds = %44
  %47 = tail call dereferenceable_or_null(64) ptr @realloc(ptr noundef nonnull %45, i64 noundef 64) #25
  br label %Vec_IntGrow.exit.i.i

48:                                               ; preds = %44
  %49 = tail call noalias dereferenceable_or_null(64) ptr @malloc(i64 noundef 64) #26
  br label %Vec_IntGrow.exit.i.i

Vec_IntGrow.exit.i.i:                             ; preds = %48, %46
  %50 = phi ptr [ %47, %46 ], [ %49, %48 ]
  store ptr %50, ptr %15, align 8, !tbaa !21
  store i32 16, ptr %7, align 8, !tbaa !28
  br label %Vec_IntPush.exit.i

51:                                               ; preds = %42
  %52 = shl nuw nsw i32 %39, 1
  %53 = load ptr, ptr %15, align 8, !tbaa !21
  %.not9.i9.i.i = icmp eq ptr %53, null
  %54 = zext nneg i32 %52 to i64
  %55 = shl nuw nsw i64 %54, 2
  br i1 %.not9.i9.i.i, label %58, label %56

56:                                               ; preds = %51
  %57 = tail call ptr @realloc(ptr noundef nonnull %53, i64 noundef %55) #25
  br label %60

58:                                               ; preds = %51
  %59 = tail call noalias ptr @malloc(i64 noundef %55) #26
  br label %60

60:                                               ; preds = %58, %56
  %61 = phi ptr [ %57, %56 ], [ %59, %58 ]
  store ptr %61, ptr %15, align 8, !tbaa !21
  store i32 %52, ptr %7, align 8, !tbaa !28
  br label %Vec_IntPush.exit.i

Vec_IntPush.exit.i:                               ; preds = %60, %Vec_IntGrow.exit.i.i, %.Vec_IntGrow.exit10_crit_edge.i.i
  %62 = phi ptr [ %.pre.i.i, %.Vec_IntGrow.exit10_crit_edge.i.i ], [ %61, %60 ], [ %50, %Vec_IntGrow.exit.i.i ]
  %63 = add nsw i32 %39, 1
  store i32 %63, ptr %9, align 4, !tbaa !27
  %64 = sext i32 %39 to i64
  %65 = getelementptr inbounds i32, ptr %62, i64 %64
  store i32 %.037, ptr %65, align 4, !tbaa !22
  %66 = load i32, ptr %9, align 4, !tbaa !27
  %67 = load i32, ptr %7, align 8, !tbaa !28
  %68 = icmp eq i32 %66, %67
  br i1 %68, label %Vec_IntPush.exit9.sink.split.i, label %Vec_IntPushTwo.exit

Vec_IntPush.exit9.sink.split.i:                   ; preds = %Vec_IntPush.exit.i
  %69 = icmp slt i32 %66, 16
  %70 = shl nuw nsw i32 %66, 1
  %71 = zext nneg i32 %70 to i64
  %72 = shl nuw nsw i64 %71, 2
  %.sink = select i1 %69, i64 64, i64 %72
  %.sink.i = select i1 %69, i32 16, i32 %70
  %73 = tail call ptr @realloc(ptr noundef nonnull %62, i64 noundef %.sink) #25
  store ptr %73, ptr %15, align 8, !tbaa !21
  store i32 %.sink.i, ptr %7, align 8, !tbaa !28
  %.pre = load i32, ptr %9, align 4, !tbaa !27
  br label %Vec_IntPushTwo.exit

Vec_IntPushTwo.exit:                              ; preds = %Vec_IntPush.exit.i, %Vec_IntPush.exit9.sink.split.i
  %74 = phi i32 [ %66, %Vec_IntPush.exit.i ], [ %.pre, %Vec_IntPush.exit9.sink.split.i ]
  %75 = phi ptr [ %62, %Vec_IntPush.exit.i ], [ %73, %Vec_IntPush.exit9.sink.split.i ]
  %76 = add nsw i32 %74, 1
  store i32 %76, ptr %9, align 4, !tbaa !27
  %77 = sext i32 %74 to i64
  %78 = getelementptr inbounds i32, ptr %75, i64 %77
  %79 = trunc nuw nsw i64 %indvars.iv to i32
  store i32 %79, ptr %78, align 4, !tbaa !22
  %.val.pre = load i32, ptr %6, align 4, !tbaa !54
  br label %80

80:                                               ; preds = %.lr.ph, %Vec_IntPushTwo.exit
  %.val = phi i32 [ %.val67, %.lr.ph ], [ %.val.pre, %Vec_IntPushTwo.exit ]
  %indvars.iv.next = add nuw nsw i64 %indvars.iv, 1
  %81 = sext i32 %.val to i64
  %82 = icmp slt i64 %indvars.iv.next, %81
  br i1 %82, label %.lr.ph, label %.critedge, !llvm.loop !211

.critedge:                                        ; preds = %80, %31
  %83 = tail call i64 @strlen(ptr noundef nonnull dereferenceable(1) %33) #28
  %84 = getelementptr inbounds nuw i8, ptr %33, i64 %83
  br label %85

85:                                               ; preds = %85, %.critedge
  %.2 = phi ptr [ %84, %.critedge ], [ %88, %85 ]
  %86 = load i8, ptr %.2, align 1, !tbaa !24
  %87 = icmp eq i8 %86, 0
  %88 = getelementptr inbounds nuw i8, ptr %.2, i64 1
  br i1 %87, label %85, label %.thread58, !llvm.loop !212

.thread58:                                        ; preds = %85, %20, %25, %30, %.thread61, %24
  %.24356 = phi i32 [ %.041, %24 ], [ 0, %.thread61 ], [ 0, %25 ], [ 0, %30 ], [ %spec.select, %20 ], [ 0, %85 ]
  %.140 = phi ptr [ %.039, %24 ], [ %.039, %.thread61 ], [ %.039, %25 ], [ %.039, %30 ], [ %.039, %20 ], [ %.2, %85 ]
  %.138 = phi i32 [ %.037, %24 ], [ %29, %.thread61 ], [ %.037, %25 ], [ %.037, %30 ], [ %.037, %20 ], [ %.037, %85 ]
  %.1 = phi i32 [ %.036, %24 ], [ %.036, %.thread61 ], [ %.036, %25 ], [ 0, %30 ], [ %.036, %20 ], [ 0, %85 ]
  %89 = getelementptr inbounds nuw i8, ptr %.140, i64 1
  br label %18, !llvm.loop !213

90:                                               ; preds = %18
  tail call void @free(ptr noundef %3) #27
  br label %91

91:                                               ; preds = %2, %90
  %.035 = phi ptr [ %7, %90 ], [ null, %2 ]
  ret ptr %.035
}